(dp0
Vengine
p1
Vpdflatex
p2
sVpackages
p3
c__builtin__
set
p4
((lp5
Vhyperref
p6
aVxcolor
p7
aVae
p8
aVepsfig
p9
aVfancyhdr
p10
aVgeometry
p11
aVbabel
p12
aVfloat
p13
aVtimes
p14
aVamsmath
p15
aVcolortbl
p16
aVinputenc
p17
aVtextcomp
p18
aVtabularx
p19
aVlistings
p20
aVurl
p21
aVpsfrag
p22
aVcaption
p23
aVgraphicx
p24
aVcolor
p25
aVamssymb
p26
atp27
Rp28
sVfiles_with_guttermarks
p29
g4
((lp30
S'main.tex'
p31
atp32
Rp33
sVsynctex
p34
I01
s.